; Function Attrs: nofree norecurse nosync nounwind memory(argmem: read) uwtable
define i32 @stbtt__find_table(ptr noundef readonly captures(none) %0, i32 noundef %1, ptr noundef readonly captures(none) %2) local_unnamed_addr #7 {
  %4 = zext i32 %1 to i64
  %5 = getelementptr inbounds nuw i8, ptr %0, i64 %4
  %6 = getelementptr inbounds nuw i8, ptr %5, i64 4
  %7 = load i8, ptr %6, align 1, !tbaa !12
  %8 = zext i8 %7 to i32
  %9 = shl nuw nsw i32 %8, 8
  %10 = getelementptr inbounds nuw i8, ptr %5, i64 5
  %11 = load i8, ptr %10, align 1, !tbaa !12
  %12 = zext i8 %11 to i32
  %13 = or disjoint i32 %9, %12
  %14 = add i32 %1, 12
  %.not = icmp eq i32 %13, 0
  br i1 %.not, label %.loopexit, label %.lr.ph

.lr.ph:                                           ; preds = %3
  %15 = load i8, ptr %2, align 1, !tbaa !12
  %16 = sext i8 %15 to i32
  %17 = getelementptr inbounds nuw i8, ptr %2, i64 1
  %18 = getelementptr inbounds nuw i8, ptr %2, i64 2
  %19 = getelementptr inbounds nuw i8, ptr %2, i64 3
  %wide.trip.count = zext nneg i32 %13 to i64
  br label %20

20:                                               ; preds = %.lr.ph, %68
  %indvars.iv = phi i64 [ 0, %.lr.ph ], [ %indvars.iv.next, %68 ]
  %indvars.iv.tr = trunc i64 %indvars.iv to i32
  %21 = shl i32 %indvars.iv.tr, 4
  %22 = add i32 %14, %21
  %23 = zext i32 %22 to i64
  %24 = getelementptr inbounds nuw i8, ptr %0, i64 %23
  %25 = load i8, ptr %24, align 1, !tbaa !12
  %26 = zext i8 %25 to i32
  %27 = icmp eq i32 %26, %16
  br i1 %27, label %28, label %68

28:                                               ; preds = %20
  %29 = getelementptr inbounds nuw i8, ptr %24, i64 1
  %30 = load i8, ptr %29, align 1, !tbaa !12
  %31 = zext i8 %30 to i32
  %32 = load i8, ptr %17, align 1, !tbaa !12
  %33 = sext i8 %32 to i32
  %34 = icmp eq i32 %31, %33
  br i1 %34, label %35, label %68

35:                                               ; preds = %28
  %36 = getelementptr inbounds nuw i8, ptr %24, i64 2
  %37 = load i8, ptr %36, align 1, !tbaa !12
  %38 = zext i8 %37 to i32
  %39 = load i8, ptr %18, align 1, !tbaa !12
  %40 = sext i8 %39 to i32
  %41 = icmp eq i32 %38, %40
  br i1 %41, label %42, label %68

42:                                               ; preds = %35
  %43 = getelementptr inbounds nuw i8, ptr %24, i64 3
  %44 = load i8, ptr %43, align 1, !tbaa !12
  %45 = zext i8 %44 to i32
  %46 = load i8, ptr %19, align 1, !tbaa !12
  %47 = sext i8 %46 to i32
  %48 = icmp eq i32 %45, %47
  br i1 %48, label %49, label %68

49:                                               ; preds = %42
  %50 = getelementptr inbounds nuw i8, ptr %24, i64 8
  %51 = load i8, ptr %50, align 1, !tbaa !12
  %52 = zext i8 %51 to i32
  %53 = shl nuw i32 %52, 24
  %54 = getelementptr inbounds nuw i8, ptr %24, i64 9
  %55 = load i8, ptr %54, align 1, !tbaa !12
  %56 = zext i8 %55 to i32
  %57 = shl nuw nsw i32 %56, 16
  %58 = or disjoint i32 %57, %53
  %59 = getelementptr inbounds nuw i8, ptr %24, i64 10
  %60 = load i8, ptr %59, align 1, !tbaa !12
  %61 = zext i8 %60 to i32
  %62 = shl nuw nsw i32 %61, 8
  %63 = or disjoint i32 %58, %62
  %64 = getelementptr inbounds nuw i8, ptr %24, i64 11
  %65 = load i8, ptr %64, align 1, !tbaa !12
  %66 = zext i8 %65 to i32
  %67 = or disjoint i32 %63, %66
  br label %.loopexit

68:                                               ; preds = %42, %35, %28, %20
  %indvars.iv.next = add nuw nsw i64 %indvars.iv, 1
  %exitcond.not = icmp eq i64 %indvars.iv.next, %wide.trip.count
  br i1 %exitcond.not, label %.loopexit, label %20, !llvm.loop !19

.loopexit:                                        ; preds = %68, %3, %49
  %.2 = phi i32 [ %67, %49 ], [ 0, %3 ], [ 0, %68 ]
  ret i32 %.2
}